target datalayout = "e-m:e-p270:32:32-p271:32:32-p272:64:64-i64:64-i128:128-f80:128-n8:16:32:64-S128"
target triple = "x86_64-pc-linux-gnu"

%struct.H5C_cache_entry_t = type { ptr, i64, i64, ptr, i8, ptr, i8, i8, i8, i8, i32, i8, i8, i8, i8, i8, i32, ptr, i32, i32, i32, i32, i32, i8, i8, ptr, ptr, ptr, ptr, ptr, ptr, i8, i32, i8, i64, ptr, i64, i64, i32, i8, i32, i32, i8, ptr, ptr, ptr }
%struct.H5EA_hdr_t = type { %struct.H5C_cache_entry_t, %struct.H5EA_create_t, i64, %struct.H5EA_stat_t, %struct.anon.1, i64, i64, i64, ptr, i64, i8, i64, i64, i8, i64, ptr, i64, ptr, i8, ptr, ptr }
%struct.H5EA_create_t = type { ptr, i8, i8, i8, i8, i8, i8 }
%struct.H5EA_stat_t = type { %struct.anon, %struct.anon.0 }
%struct.anon = type { i64, i64, i64 }
%struct.anon.0 = type { i64, i64, i64, i64, i64, i64 }
%struct.anon.1 = type { i64, ptr }
%struct.H5EA_class_t = type { i32, ptr, i64, ptr, ptr, ptr, ptr, ptr, ptr, ptr, ptr }
%struct.H5EA_dbk_page_t = type { %struct.H5C_cache_entry_t, ptr, ptr, i64, i64, i8, ptr, ptr }

@H5EA_init_g = external global i8, align 1
@H5_libterm_g = external global i8, align 1
@.str.5 = private unnamed_addr constant [103 x i8] c"generated/home/dtcxzyw/WorkSpace/Projects/compilers/llvm-opt-benchmark/bench/hdf5/hdf5/src/H5EAcache.c\00", align 1
@H5E_EARRAY_g = external global i64, align 8
@H5E_CANTENCODE_g = external global i64, align 8
@.str.46 = private unnamed_addr constant [44 x i8] c"can't encode extensible array data elements\00", align 1
@__func__.H5EA__cache_dblk_page_serialize = private unnamed_addr constant [32 x i8] c"H5EA__cache_dblk_page_serialize\00", align 1

; Function Attrs: nounwind uwtable
define internal i32 @H5EA__cache_dblk_page_serialize(ptr noundef %0, ptr noundef %1, i64 noundef %2, ptr noundef %3) #0 {
  %5 = alloca ptr, align 8
  %6 = alloca ptr, align 8
  %7 = alloca i64, align 8
  %8 = alloca ptr, align 8
  %9 = alloca ptr, align 8
  %10 = alloca ptr, align 8
  %11 = alloca i32, align 4
  %12 = alloca i32, align 4
  %13 = alloca i8, align 1
  store ptr %0, ptr %5, align 8, !tbaa !81
  store ptr %1, ptr %6, align 8, !tbaa !3
  store i64 %2, ptr %7, align 8, !tbaa !19
  store ptr %3, ptr %8, align 8, !tbaa !3
  call void @llvm.lifetime.start.p0(i64 8, ptr %9) #8
  %14 = load ptr, ptr %8, align 8, !tbaa !3
  store ptr %14, ptr %9, align 8, !tbaa !174
  call void @llvm.lifetime.start.p0(i64 8, ptr %10) #8
  %15 = load ptr, ptr %6, align 8, !tbaa !3
  store ptr %15, ptr %10, align 8, !tbaa !20
  call void @llvm.lifetime.start.p0(i64 4, ptr %11) #8
  call void @llvm.lifetime.start.p0(i64 4, ptr %12) #8
  store i32 0, ptr %12, align 4, !tbaa !22
  call void @llvm.lifetime.start.p0(i64 1, ptr %13) #8
  store i8 0, ptr %13, align 1, !tbaa !11
  %16 = load i8, ptr @H5EA_init_g, align 1, !tbaa !11, !range !13, !noundef !14
  %17 = trunc i8 %16 to i1
  br i1 %17, label %22, label %18

18:                                               ; preds = %4
  %19 = load i8, ptr @H5_libterm_g, align 1, !tbaa !11, !range !13, !noundef !14
  %20 = trunc i8 %19 to i1
  %21 = xor i1 %20, true
  br label %22

22:                                               ; preds = %18, %4
  %23 = phi i1 [ true, %4 ], [ %21, %18 ]
  %24 = xor i1 %23, true
  %25 = xor i1 %24, true
  %26 = zext i1 %25 to i32
  %27 = sext i32 %26 to i64
  %28 = call i64 @llvm.expect.i64(i64 %27, i64 1)
  %29 = icmp ne i64 %28, 0
  br i1 %29, label %30, label %128

30:                                               ; preds = %22
  %31 = load ptr, ptr %9, align 8, !tbaa !174
  %32 = getelementptr inbounds nuw %struct.H5EA_dbk_page_t, ptr %31, i32 0, i32 2
  %33 = load ptr, ptr %32, align 8, !tbaa !182
  %34 = getelementptr inbounds nuw %struct.H5EA_hdr_t, ptr %33, i32 0, i32 1
  %35 = getelementptr inbounds nuw %struct.H5EA_create_t, ptr %34, i32 0, i32 0
  %36 = load ptr, ptr %35, align 8, !tbaa !48
  %37 = getelementptr inbounds nuw %struct.H5EA_class_t, ptr %36, i32 0, i32 6
  %38 = load ptr, ptr %37, align 8, !tbaa !111
  %39 = load ptr, ptr %10, align 8, !tbaa !20
  %40 = load ptr, ptr %9, align 8, !tbaa !174
  %41 = getelementptr inbounds nuw %struct.H5EA_dbk_page_t, ptr %40, i32 0, i32 1
  %42 = load ptr, ptr %41, align 8, !tbaa !180
  %43 = load ptr, ptr %9, align 8, !tbaa !174
  %44 = getelementptr inbounds nuw %struct.H5EA_dbk_page_t, ptr %43, i32 0, i32 2
  %45 = load ptr, ptr %44, align 8, !tbaa !182
  %46 = getelementptr inbounds nuw %struct.H5EA_hdr_t, ptr %45, i32 0, i32 16
  %47 = load i64, ptr %46, align 8, !tbaa !128
  %48 = load ptr, ptr %9, align 8, !tbaa !174
  %49 = getelementptr inbounds nuw %struct.H5EA_dbk_page_t, ptr %48, i32 0, i32 2
  %50 = load ptr, ptr %49, align 8, !tbaa !182
  %51 = getelementptr inbounds nuw %struct.H5EA_hdr_t, ptr %50, i32 0, i32 17
  %52 = load ptr, ptr %51, align 8, !tbaa !105
  %53 = call i32 %38(ptr noundef %39, ptr noundef %42, i64 noundef %47, ptr noundef %52)
  %54 = icmp slt i32 %53, 0
  br i1 %54, label %55, label %74

55:                                               ; preds = %30
  br label %56

56:                                               ; preds = %55
  br label %57

57:                                               ; preds = %56
  br label %58

58:                                               ; preds = %57
  %59 = load i64, ptr @H5E_EARRAY_g, align 8, !tbaa !19
  %60 = load i64, ptr @H5E_CANTENCODE_g, align 8, !tbaa !19
  %61 = call i32 (ptr, ptr, i32, i64, i64, ptr, ...) @H5E_printf_stack(ptr noundef @.str.5, ptr noundef @__func__.H5EA__cache_dblk_page_serialize, i32 noundef 2023, i64 noundef %59, i64 noundef %60, ptr noundef @.str.46)
  br label %62

62:                                               ; preds = %58
  br label %63

63:                                               ; preds = %62
  store i8 1, ptr %13, align 1, !tbaa !11
  %64 = load i8, ptr %13, align 1, !tbaa !11, !range !13, !noundef !14
  %65 = trunc i8 %64 to i1
  %66 = zext i1 %65 to i8
  store i8 %66, ptr %13, align 1, !tbaa !11
  br label %67

67:                                               ; preds = %63
  br label %68

68:                                               ; preds = %67
  br label %69

69:                                               ; preds = %68
  store i32 -1, ptr %12, align 4, !tbaa !22
  br label %127

70:                                               ; No predecessors!
  br label %71

71:                                               ; preds = %70
  br label %72

72:                                               ; preds = %71
  br label %73

73:                                               ; preds = %72
  br label %74

74:                                               ; preds = %73, %30
  %75 = load ptr, ptr %9, align 8, !tbaa !174
  %76 = getelementptr inbounds nuw %struct.H5EA_dbk_page_t, ptr %75, i32 0, i32 2
  %77 = load ptr, ptr %76, align 8, !tbaa !182
  %78 = getelementptr inbounds nuw %struct.H5EA_hdr_t, ptr %77, i32 0, i32 16
  %79 = load i64, ptr %78, align 8, !tbaa !128
  %80 = load ptr, ptr %9, align 8, !tbaa !174
  %81 = getelementptr inbounds nuw %struct.H5EA_dbk_page_t, ptr %80, i32 0, i32 2
  %82 = load ptr, ptr %81, align 8, !tbaa !182
  %83 = getelementptr inbounds nuw %struct.H5EA_hdr_t, ptr %82, i32 0, i32 1
  %84 = getelementptr inbounds nuw %struct.H5EA_create_t, ptr %83, i32 0, i32 1
  %85 = load i8, ptr %84, align 8, !tbaa !49
  %86 = zext i8 %85 to i64
  %87 = mul i64 %79, %86
  %88 = load ptr, ptr %10, align 8, !tbaa !20
  %89 = getelementptr inbounds nuw i8, ptr %88, i64 %87
  store ptr %89, ptr %10, align 8, !tbaa !20
  %90 = load ptr, ptr %6, align 8, !tbaa !3
  %91 = load ptr, ptr %10, align 8, !tbaa !20
  %92 = load ptr, ptr %6, align 8, !tbaa !3
  %93 = ptrtoint ptr %91 to i64
  %94 = ptrtoint ptr %92 to i64
  %95 = sub i64 %93, %94
  %96 = call i32 @H5_checksum_metadata(ptr noundef %90, i64 noundef %95, i32 noundef 0)
  store i32 %96, ptr %11, align 4, !tbaa !22
  br label %97

97:                                               ; preds = %74
  %98 = load i32, ptr %11, align 4, !tbaa !22
  %99 = and i32 %98, 255
  %100 = trunc i32 %99 to i8
  %101 = load ptr, ptr %10, align 8, !tbaa !20
  store i8 %100, ptr %101, align 1, !tbaa !46
  %102 = load ptr, ptr %10, align 8, !tbaa !20
  %103 = getelementptr inbounds nuw i8, ptr %102, i32 1
  store ptr %103, ptr %10, align 8, !tbaa !20
  %104 = load i32, ptr %11, align 4, !tbaa !22
  %105 = lshr i32 %104, 8
  %106 = and i32 %105, 255
  %107 = trunc i32 %106 to i8
  %108 = load ptr, ptr %10, align 8, !tbaa !20
  store i8 %107, ptr %108, align 1, !tbaa !46
  %109 = load ptr, ptr %10, align 8, !tbaa !20
  %110 = getelementptr inbounds nuw i8, ptr %109, i32 1
  store ptr %110, ptr %10, align 8, !tbaa !20
  %111 = load i32, ptr %11, align 4, !tbaa !22
  %112 = lshr i32 %111, 16
  %113 = and i32 %112, 255
  %114 = trunc i32 %113 to i8
  %115 = load ptr, ptr %10, align 8, !tbaa !20
  store i8 %114, ptr %115, align 1, !tbaa !46
  %116 = load ptr, ptr %10, align 8, !tbaa !20
  %117 = getelementptr inbounds nuw i8, ptr %116, i32 1
  store ptr %117, ptr %10, align 8, !tbaa !20
  %118 = load i32, ptr %11, align 4, !tbaa !22
  %119 = lshr i32 %118, 24
  %120 = and i32 %119, 255
  %121 = trunc i32 %120 to i8
  %122 = load ptr, ptr %10, align 8, !tbaa !20
  store i8 %121, ptr %122, align 1, !tbaa !46
  %123 = load ptr, ptr %10, align 8, !tbaa !20
  %124 = getelementptr inbounds nuw i8, ptr %123, i32 1
  store ptr %124, ptr %10, align 8, !tbaa !20
  br label %125

125:                                              ; preds = %97
  br label %126

126:                                              ; preds = %125
  br label %127

127:                                              ; preds = %126, %69
  br label %128

128:                                              ; preds = %127, %22
  %129 = load i32, ptr %12, align 4, !tbaa !22
  call void @llvm.lifetime.end.p0(i64 1, ptr %13) #8
  call void @llvm.lifetime.end.p0(i64 4, ptr %12) #8
  call void @llvm.lifetime.end.p0(i64 4, ptr %11) #8
  call void @llvm.lifetime.end.p0(i64 8, ptr %10) #8
  call void @llvm.lifetime.end.p0(i64 8, ptr %9) #8
  ret i32 %129
}