; Function Attrs: nounwind uwtable
define internal range(i32 -1, 1) i32 @H5EA__cache_dblk_page_serialize(ptr readnone captures(none) %0, ptr noundef %1, i64 %2, ptr noundef readonly captures(none) %3) #0 {
  %5 = load i8, ptr @H5EA_init_g, align 1, !tbaa !3, !range !7, !noundef !8
  %6 = trunc nuw i8 %5 to i1
  %7 = load i8, ptr @H5_libterm_g, align 1, !range !7
  %8 = trunc nuw i8 %7 to i1
  %9 = xor i1 %8, true
  %10 = select i1 %6, i1 true, i1 %9
  br i1 %10, label %11, label %50, !prof !9

11:                                               ; preds = %4
  %12 = getelementptr inbounds nuw i8, ptr %3, i64 256
  %13 = load ptr, ptr %12, align 8, !tbaa !155
  %14 = getelementptr inbounds nuw i8, ptr %13, i64 248
  %15 = load ptr, ptr %14, align 8, !tbaa !41
  %16 = getelementptr inbounds nuw i8, ptr %15, i64 48
  %17 = load ptr, ptr %16, align 8, !tbaa !95
  %18 = getelementptr inbounds nuw i8, ptr %3, i64 248
  %19 = load ptr, ptr %18, align 8, !tbaa !153
  %20 = getelementptr inbounds nuw i8, ptr %13, i64 448
  %21 = load i64, ptr %20, align 8, !tbaa !107
  %22 = getelementptr inbounds nuw i8, ptr %13, i64 456
  %23 = load ptr, ptr %22, align 8, !tbaa !86
  %24 = tail call i32 %17(ptr noundef %1, ptr noundef %19, i64 noundef %21, ptr noundef %23) #6
  %25 = icmp slt i32 %24, 0
  br i1 %25, label %26, label %30

26:                                               ; preds = %11
  %27 = load i64, ptr @H5E_EARRAY_g, align 8, !tbaa !15
  %28 = load i64, ptr @H5E_CANTENCODE_g, align 8, !tbaa !15
  %29 = tail call i32 (ptr, ptr, i32, i64, i64, ptr, ...) @H5E_printf_stack(ptr noundef nonnull @.str.5, ptr noundef nonnull @__func__.H5EA__cache_dblk_page_serialize, i32 noundef 2023, i64 noundef %27, i64 noundef %28, ptr noundef nonnull @.str.46) #6
  br label %50

30:                                               ; preds = %11
  %31 = load ptr, ptr %12, align 8, !tbaa !155
  %32 = getelementptr inbounds nuw i8, ptr %31, i64 448
  %33 = load i64, ptr %32, align 8, !tbaa !107
  %34 = getelementptr inbounds nuw i8, ptr %31, i64 256
  %35 = load i8, ptr %34, align 8, !tbaa !42
  %36 = zext i8 %35 to i64
  %37 = mul i64 %33, %36
  %38 = getelementptr inbounds nuw i8, ptr %1, i64 %37
  %39 = tail call i32 @H5_checksum_metadata(ptr noundef %1, i64 noundef %37, i32 noundef 0) #6
  %40 = trunc i32 %39 to i8
  store i8 %40, ptr %38, align 1, !tbaa !39
  %41 = getelementptr inbounds nuw i8, ptr %38, i64 1
  %42 = lshr i32 %39, 8
  %43 = trunc i32 %42 to i8
  store i8 %43, ptr %41, align 1, !tbaa !39
  %44 = getelementptr inbounds nuw i8, ptr %38, i64 2
  %45 = lshr i32 %39, 16
  %46 = trunc i32 %45 to i8
  store i8 %46, ptr %44, align 1, !tbaa !39
  %47 = getelementptr inbounds nuw i8, ptr %38, i64 3
  %48 = lshr i32 %39, 24
  %49 = trunc nuw i32 %48 to i8
  store i8 %49, ptr %47, align 1, !tbaa !39
  br label %50

50:                                               ; preds = %26, %30, %4
  %.0 = phi i32 [ -1, %26 ], [ 0, %30 ], [ 0, %4 ]
  ret i32 %.0
}